; ModuleID = 'source-C-CXX/53/1498.cpp'
source_filename = "source-C-CXX/53/1498.cpp"
target datalayout = "e-m:e-p270:32:32-p271:32:32-p272:64:64-i64:64-f80:128-n8:16:32:64-S128"
target triple = "x86_64-pc-linux-gnu"

%"class.std::ios_base::Init" = type { i8 }
%"class.std::basic_istream" = type { i32 (...)**, i64, %"class.std::basic_ios" }
%"class.std::basic_ios" = type { %"class.std::ios_base", %"class.std::basic_ostream"*, i8, i8, %"class.std::basic_streambuf"*, %"class.std::ctype"*, %"class.std::num_put"*, %"class.std::num_get"* }
%"class.std::ios_base" = type { i32 (...)**, i64, i64, i32, i32, i32, %"struct.std::ios_base::_Callback_list"*, %"struct.std::ios_base::_Words", [8 x %"struct.std::ios_base::_Words"], i32, %"struct.std::ios_base::_Words"*, %"class.std::locale" }
%"struct.std::ios_base::_Callback_list" = type { %"struct.std::ios_base::_Callback_list"*, void (i32, %"class.std::ios_base"*, i32)*, i32, i32 }
%"struct.std::ios_base::_Words" = type { i8*, i64 }
%"class.std::locale" = type { %"class.std::locale::_Impl"* }
%"class.std::locale::_Impl" = type { i32, %"class.std::locale::facet"**, i64, %"class.std::locale::facet"**, i8** }
%"class.std::locale::facet" = type <{ i32 (...)**, i32, [4 x i8] }>
%"class.std::basic_ostream" = type { i32 (...)**, %"class.std::basic_ios" }
%"class.std::basic_streambuf" = type { i32 (...)**, i8*, i8*, i8*, i8*, i8*, i8*, %"class.std::locale" }
%"class.std::ctype" = type <{ %"class.std::locale::facet.base", [4 x i8], %struct.__locale_struct*, i8, [7 x i8], i32*, i32*, i16*, i8, [256 x i8], [256 x i8], i8, [6 x i8] }>
%"class.std::locale::facet.base" = type <{ i32 (...)**, i32 }>
%struct.__locale_struct = type { [13 x %struct.__locale_data*], i16*, i32*, i32*, [13 x i8*] }
%struct.__locale_data = type opaque
%"class.std::num_put" = type { %"class.std::locale::facet.base", [4 x i8] }
%"class.std::num_get" = type { %"class.std::locale::facet.base", [4 x i8] }

@_ZStL8__ioinit = internal global %"class.std::ios_base::Init" zeroinitializer, align 1
@__dso_handle = external hidden global i8
@_ZSt3cin = external global %"class.std::basic_istream", align 8
@_ZSt4cout = external global %"class.std::basic_ostream", align 8
@llvm.global_ctors = appending global [1 x { i32, void ()*, i8* }] [{ i32, void ()*, i8* } { i32 65535, void ()* @_GLOBAL__sub_I_1498.cpp, i8* null }]

declare void @_ZNSt8ios_base4InitC1Ev(%"class.std::ios_base::Init"* nonnull align 1 dereferenceable(1)) unnamed_addr #0

; Function Attrs: nounwind
declare void @_ZNSt8ios_base4InitD1Ev(%"class.std::ios_base::Init"* nonnull align 1 dereferenceable(1)) unnamed_addr #1

; Function Attrs: nofree nounwind
declare i32 @__cxa_atexit(void (i8*)*, i8*, i8*) local_unnamed_addr #2

; Function Attrs: mustprogress nofree nosync nounwind readnone sspstrong uwtable willreturn
define dso_local i32 @_Z2pgii(i32 %0, i32 %1) local_unnamed_addr #3 {
  %3 = alloca [1000 x i32], align 16
  %4 = bitcast [1000 x i32]* %3 to i8*
  call void @llvm.lifetime.start.p0i8(i64 4000, i8* nonnull %4) #7
  %5 = sext i32 %0 to i64
  %6 = getelementptr inbounds [1000 x i32], [1000 x i32]* %3, i64 0, i64 %5
  %7 = add i32 %0, -1
  %8 = icmp sgt i32 %0, 1
  %9 = add nsw i32 %1, %0
  store i32 %9, i32* %6, align 4, !tbaa !5
  br i1 %8, label %10, label %31

10:                                               ; preds = %2
  %11 = zext i32 %7 to i64
  br label %12

12:                                               ; preds = %26, %10
  %13 = phi i64 [ %11, %10 ], [ %27, %26 ]
  %14 = add nuw nsw i64 %13, 1
  %15 = getelementptr inbounds [1000 x i32], [1000 x i32]* %3, i64 0, i64 %14
  %16 = load i32, i32* %15, align 4, !tbaa !5
  %17 = srem i32 %16, %7
  %18 = sdiv i32 %16, %7
  %19 = icmp eq i32 %17, 0
  br i1 %19, label %20, label %28

20:                                               ; preds = %12
  %21 = mul nsw i32 %18, %0
  %22 = add nsw i32 %21, %1
  %23 = getelementptr inbounds [1000 x i32], [1000 x i32]* %3, i64 0, i64 %13
  store i32 %22, i32* %23, align 4, !tbaa !5
  %24 = icmp sgt i64 %13, 1
  %25 = add nsw i64 %13, -1
  br i1 %24, label %26, label %31

26:                                               ; preds = %20, %28
  %27 = phi i64 [ %25, %20 ], [ %11, %28 ]
  br label %12, !llvm.loop !9

28:                                               ; preds = %12
  %29 = load i32, i32* %6, align 4, !tbaa !5
  %30 = add nsw i32 %29, %0
  store i32 %30, i32* %6, align 4, !tbaa !5
  br label %26

31:                                               ; preds = %20, %2
  %32 = getelementptr inbounds [1000 x i32], [1000 x i32]* %3, i64 0, i64 1
  %33 = load i32, i32* %32, align 4, !tbaa !5
  call void @llvm.lifetime.end.p0i8(i64 4000, i8* nonnull %4) #7
  ret i32 %33
}

; Function Attrs: argmemonly mustprogress nofree nosync nounwind willreturn
declare void @llvm.lifetime.start.p0i8(i64 immarg, i8* nocapture) #4

; Function Attrs: argmemonly mustprogress nofree nosync nounwind willreturn
declare void @llvm.lifetime.end.p0i8(i64 immarg, i8* nocapture) #4

; Function Attrs: mustprogress norecurse sspstrong uwtable
define dso_local i32 @main() local_unnamed_addr #5 {
  %1 = alloca [1000 x i32], align 16
  %2 = alloca i32, align 4
  %3 = alloca i32, align 4
  %4 = bitcast i32* %2 to i8*
  call void @llvm.lifetime.start.p0i8(i64 4, i8* nonnull %4) #7
  %5 = bitcast i32* %3 to i8*
  call void @llvm.lifetime.start.p0i8(i64 4, i8* nonnull %5) #7
  %6 = call nonnull align 8 dereferenceable(16) %"class.std::basic_istream"* @_ZNSirsERi(%"class.std::basic_istream"* nonnull align 8 dereferenceable(16) @_ZSt3cin, i32* nonnull align 4 dereferenceable(4) %2)
  %7 = call nonnull align 8 dereferenceable(16) %"class.std::basic_istream"* @_ZNSirsERi(%"class.std::basic_istream"* nonnull align 8 dereferenceable(16) %6, i32* nonnull align 4 dereferenceable(4) %3)
  %8 = load i32, i32* %2, align 4, !tbaa !5
  %9 = load i32, i32* %3, align 4, !tbaa !5
  %10 = bitcast [1000 x i32]* %1 to i8*
  call void @llvm.lifetime.start.p0i8(i64 4000, i8* nonnull %10) #7
  %11 = sext i32 %8 to i64
  %12 = getelementptr inbounds [1000 x i32], [1000 x i32]* %1, i64 0, i64 %11
  %13 = add i32 %8, -1
  %14 = icmp sgt i32 %8, 1
  %15 = add nsw i32 %9, %8
  store i32 %15, i32* %12, align 4, !tbaa !5
  br i1 %14, label %16, label %37

16:                                               ; preds = %0
  %17 = zext i32 %13 to i64
  br label %18

18:                                               ; preds = %32, %16
  %19 = phi i64 [ %17, %16 ], [ %33, %32 ]
  %20 = add nuw nsw i64 %19, 1
  %21 = getelementptr inbounds [1000 x i32], [1000 x i32]* %1, i64 0, i64 %20
  %22 = load i32, i32* %21, align 4, !tbaa !5
  %23 = srem i32 %22, %13
  %24 = sdiv i32 %22, %13
  %25 = icmp eq i32 %23, 0
  br i1 %25, label %26, label %34

26:                                               ; preds = %18
  %27 = mul nsw i32 %24, %8
  %28 = add nsw i32 %27, %9
  %29 = getelementptr inbounds [1000 x i32], [1000 x i32]* %1, i64 0, i64 %19
  store i32 %28, i32* %29, align 4, !tbaa !5
  %30 = icmp sgt i64 %19, 1
  %31 = add nsw i64 %19, -1
  br i1 %30, label %32, label %37

32:                                               ; preds = %26, %34
  %33 = phi i64 [ %31, %26 ], [ %17, %34 ]
  br label %18, !llvm.loop !9

34:                                               ; preds = %18
  %35 = load i32, i32* %12, align 4, !tbaa !5
  %36 = add nsw i32 %35, %8
  store i32 %36, i32* %12, align 4, !tbaa !5
  br label %32

37:                                               ; preds = %26, %0
  %38 = getelementptr inbounds [1000 x i32], [1000 x i32]* %1, i64 0, i64 1
  %39 = load i32, i32* %38, align 4, !tbaa !5
  call void @llvm.lifetime.end.p0i8(i64 4000, i8* nonnull %10) #7
  %40 = call nonnull align 8 dereferenceable(8) %"class.std::basic_ostream"* @_ZNSolsEi(%"class.std::basic_ostream"* nonnull align 8 dereferenceable(8) @_ZSt4cout, i32 %39)
  call void @llvm.lifetime.end.p0i8(i64 4, i8* nonnull %5) #7
  call void @llvm.lifetime.end.p0i8(i64 4, i8* nonnull %4) #7
  ret i32 0
}

declare nonnull align 8 dereferenceable(16) %"class.std::basic_istream"* @_ZNSirsERi(%"class.std::basic_istream"* nonnull align 8 dereferenceable(16), i32* nonnull align 4 dereferenceable(4)) local_unnamed_addr #0

declare nonnull align 8 dereferenceable(8) %"class.std::basic_ostream"* @_ZNSolsEi(%"class.std::basic_ostream"* nonnull align 8 dereferenceable(8), i32) local_unnamed_addr #0

; Function Attrs: sspstrong uwtable
define internal void @_GLOBAL__sub_I_1498.cpp() #6 section ".text.startup" {
  tail call void @_ZNSt8ios_base4InitC1Ev(%"class.std::ios_base::Init"* nonnull align 1 dereferenceable(1) @_ZStL8__ioinit)
  %1 = tail call i32 @__cxa_atexit(void (i8*)* bitcast (void (%"class.std::ios_base::Init"*)* @_ZNSt8ios_base4InitD1Ev to void (i8*)*), i8* getelementptr inbounds (%"class.std::ios_base::Init", %"class.std::ios_base::Init"* @_ZStL8__ioinit, i64 0, i32 0), i8* nonnull @__dso_handle) #7
  ret void
}


!llvm.module.flags = !{!0, !1, !2, !3}
!llvm.ident = !{!4}

!0 = !{i32 1, !"wchar_size", i32 4}
!1 = !{i32 7, !"PIC Level", i32 2}
!2 = !{i32 7, !"PIE Level", i32 2}
!3 = !{i32 7, !"uwtable", i32 1}
!4 = !{!"clang version 13.0.0"}
!5 = !{!6, !6, i64 0}
!6 = !{!"int", !7, i64 0}
!7 = !{!"omnipotent char", !8, i64 0}
!8 = !{!"Simple C++ TBAA"}
!9 = distinct !{!9, !10}
!10 = !{!"llvm.loop.mustprogress"}
